#include <math.h>
#include <stdio.h>
#include <stdlib.h>
#include <string.h>

int main()
{
	char s[20],*p,*max;
	int i,l;
	while(gets(s))
	{
		p=s;
		max=p;
    	l=strlen(s);
		for(i=0;i<l-4;i++)
		{
			if(*(p+i)>*max)
				max=p+i;
        }
		for(p=s;p<=max;p++)
			printf("%c",*p);
		printf("%c%c%c",s[l-3],s[l-2],s[l-1]);
		for(p=max+1;p<&s[l-4];p++)
			printf("%c",*p);
		printf("\n");
	}
return 0;
}
