; ModuleID = '20/673.c'
source_filename = "20/673.c"
target datalayout = "e-m:e-p270:32:32-p271:32:32-p272:64:64-i64:64-f80:128-n8:16:32:64-S128"
target triple = "x86_64-pc-linux-gnu"

@.str = private unnamed_addr constant [3 x i8] c"%c\00", align 1
@.str.1 = private unnamed_addr constant [7 x i8] c"%c%c%c\00", align 1
@.str.2 = private unnamed_addr constant [2 x i8] c"\0A\00", align 1

; Function Attrs: noinline nounwind uwtable
define dso_local i32 @main() #0 {
  %1 = alloca i32, align 4
  %2 = alloca [20 x i8], align 16
  %3 = alloca i8*, align 8
  %4 = alloca i8*, align 8
  %5 = alloca i32, align 4
  %6 = alloca i32, align 4
  store i32 0, i32* %1, align 4
  br label %7

7:                                                ; preds = %93, %0
  %8 = getelementptr inbounds [20 x i8], [20 x i8]* %2, i64 0, i64 0
  %9 = call i32 (i8*, ...) bitcast (i32 (...)* @gets to i32 (i8*, ...)*)(i8* %8)
  %10 = icmp ne i32 %9, 0
  br i1 %10, label %11, label %95

11:                                               ; preds = %7
  %12 = getelementptr inbounds [20 x i8], [20 x i8]* %2, i64 0, i64 0
  store i8* %12, i8** %3, align 8
  %13 = load i8*, i8** %3, align 8
  store i8* %13, i8** %4, align 8
  %14 = getelementptr inbounds [20 x i8], [20 x i8]* %2, i64 0, i64 0
  %15 = call i64 @strlen(i8* %14) #3
  %16 = trunc i64 %15 to i32
  store i32 %16, i32* %6, align 4
  store i32 0, i32* %5, align 4
  br label %17

17:                                               ; preds = %39, %11
  %18 = load i32, i32* %5, align 4
  %19 = load i32, i32* %6, align 4
  %20 = sub nsw i32 %19, 4
  %21 = icmp slt i32 %18, %20
  br i1 %21, label %22, label %42

22:                                               ; preds = %17
  %23 = load i8*, i8** %3, align 8
  %24 = load i32, i32* %5, align 4
  %25 = sext i32 %24 to i64
  %26 = getelementptr inbounds i8, i8* %23, i64 %25
  %27 = load i8, i8* %26, align 1
  %28 = sext i8 %27 to i32
  %29 = load i8*, i8** %4, align 8
  %30 = load i8, i8* %29, align 1
  %31 = sext i8 %30 to i32
  %32 = icmp sgt i32 %28, %31
  br i1 %32, label %33, label %38

33:                                               ; preds = %22
  %34 = load i8*, i8** %3, align 8
  %35 = load i32, i32* %5, align 4
  %36 = sext i32 %35 to i64
  %37 = getelementptr inbounds i8, i8* %34, i64 %36
  store i8* %37, i8** %4, align 8
  br label %38

38:                                               ; preds = %33, %22
  br label %39

39:                                               ; preds = %38
  %40 = load i32, i32* %5, align 4
  %41 = add nsw i32 %40, 1
  store i32 %41, i32* %5, align 4
  br label %17

42:                                               ; preds = %17
  %43 = getelementptr inbounds [20 x i8], [20 x i8]* %2, i64 0, i64 0
  store i8* %43, i8** %3, align 8
  br label %44

44:                                               ; preds = %53, %42
  %45 = load i8*, i8** %3, align 8
  %46 = load i8*, i8** %4, align 8
  %47 = icmp ule i8* %45, %46
  br i1 %47, label %48, label %56

48:                                               ; preds = %44
  %49 = load i8*, i8** %3, align 8
  %50 = load i8, i8* %49, align 1
  %51 = sext i8 %50 to i32
  %52 = call i32 (i8*, ...) @printf(i8* getelementptr inbounds ([3 x i8], [3 x i8]* @.str, i64 0, i64 0), i32 %51)
  br label %53

53:                                               ; preds = %48
  %54 = load i8*, i8** %3, align 8
  %55 = getelementptr inbounds i8, i8* %54, i32 1
  store i8* %55, i8** %3, align 8
  br label %44

56:                                               ; preds = %44
  %57 = load i32, i32* %6, align 4
  %58 = sub nsw i32 %57, 3
  %59 = sext i32 %58 to i64
  %60 = getelementptr inbounds [20 x i8], [20 x i8]* %2, i64 0, i64 %59
  %61 = load i8, i8* %60, align 1
  %62 = sext i8 %61 to i32
  %63 = load i32, i32* %6, align 4
  %64 = sub nsw i32 %63, 2
  %65 = sext i32 %64 to i64
  %66 = getelementptr inbounds [20 x i8], [20 x i8]* %2, i64 0, i64 %65
  %67 = load i8, i8* %66, align 1
  %68 = sext i8 %67 to i32
  %69 = load i32, i32* %6, align 4
  %70 = sub nsw i32 %69, 1
  %71 = sext i32 %70 to i64
  %72 = getelementptr inbounds [20 x i8], [20 x i8]* %2, i64 0, i64 %71
  %73 = load i8, i8* %72, align 1
  %74 = sext i8 %73 to i32
  %75 = call i32 (i8*, ...) @printf(i8* getelementptr inbounds ([7 x i8], [7 x i8]* @.str.1, i64 0, i64 0), i32 %62, i32 %68, i32 %74)
  %76 = load i8*, i8** %4, align 8
  %77 = getelementptr inbounds i8, i8* %76, i64 1
  store i8* %77, i8** %3, align 8
  br label %78

78:                                               ; preds = %90, %56
  %79 = load i8*, i8** %3, align 8
  %80 = load i32, i32* %6, align 4
  %81 = sub nsw i32 %80, 4
  %82 = sext i32 %81 to i64
  %83 = getelementptr inbounds [20 x i8], [20 x i8]* %2, i64 0, i64 %82
  %84 = icmp ult i8* %79, %83
  br i1 %84, label %85, label %93

85:                                               ; preds = %78
  %86 = load i8*, i8** %3, align 8
  %87 = load i8, i8* %86, align 1
  %88 = sext i8 %87 to i32
  %89 = call i32 (i8*, ...) @printf(i8* getelementptr inbounds ([3 x i8], [3 x i8]* @.str, i64 0, i64 0), i32 %88)
  br label %90

90:                                               ; preds = %85
  %91 = load i8*, i8** %3, align 8
  %92 = getelementptr inbounds i8, i8* %91, i32 1
  store i8* %92, i8** %3, align 8
  br label %78

93:                                               ; preds = %78
  %94 = call i32 (i8*, ...) @printf(i8* getelementptr inbounds ([2 x i8], [2 x i8]* @.str.2, i64 0, i64 0))
  br label %7

95:                                               ; preds = %7
  ret i32 0
}

declare dso_local i32 @gets(...) #1

; Function Attrs: nounwind readonly
declare dso_local i64 @strlen(i8*) #2

declare dso_local i32 @printf(i8*, ...) #1


!llvm.module.flags = !{!0}
!llvm.ident = !{!1}

!0 = !{i32 1, !"wchar_size", i32 4}
!1 = !{!"clang version 10.0.0-4ubuntu1 "}
